; Function Attrs: nounwind uwtable
define dso_local void @_bt_end_vacuum_callback(i32 noundef %0, i64 noundef %1) local_unnamed_addr #0 {
  %3 = load ptr, ptr @MainLWLockArray, align 8
  %4 = getelementptr inbounds nuw i8, ptr %3, i64 2560
  %5 = tail call zeroext i1 @LWLockAcquire(ptr noundef nonnull %4, i32 noundef 0) #14
  %6 = load ptr, ptr @btvacinfo, align 8
  %7 = getelementptr inbounds nuw i8, ptr %6, i64 4
  %8 = load i32, ptr %7, align 4
  %9 = icmp sgt i32 %8, 0
  br i1 %9, label %.lr.ph.i, label %_bt_end_vacuum.exit

.lr.ph.i:                                         ; preds = %2
  %10 = inttoptr i64 %1 to ptr
  %11 = getelementptr inbounds nuw i8, ptr %6, i64 12
  %12 = getelementptr inbounds nuw i8, ptr %10, i64 76
  %13 = load i32, ptr %12, align 4
  %14 = getelementptr inbounds nuw i8, ptr %10, i64 80
  %wide.trip.count.i = zext nneg i32 %8 to i64
  br label %15

15:                                               ; preds = %28, %.lr.ph.i
  %indvars.iv.i = phi i64 [ 0, %.lr.ph.i ], [ %indvars.iv.next.i, %28 ]
  %16 = getelementptr inbounds nuw [0 x %struct.BTOneVacInfo], ptr %11, i64 0, i64 %indvars.iv.i
  %17 = load i32, ptr %16, align 4
  %18 = icmp eq i32 %17, %13
  br i1 %18, label %19, label %28

19:                                               ; preds = %15
  %20 = getelementptr inbounds nuw i8, ptr %16, i64 4
  %21 = load i32, ptr %20, align 4
  %22 = load i32, ptr %14, align 4
  %23 = icmp eq i32 %21, %22
  br i1 %23, label %24, label %28

24:                                               ; preds = %19
  %25 = add nsw i32 %8, -1
  %26 = sext i32 %25 to i64
  %27 = getelementptr inbounds [0 x %struct.BTOneVacInfo], ptr %11, i64 0, i64 %26
  tail call void @llvm.memcpy.p0.p0.i64(ptr noundef nonnull align 4 dereferenceable(12) %16, ptr noundef nonnull align 4 dereferenceable(12) %27, i64 12, i1 false)
  store i32 %25, ptr %7, align 4
  br label %_bt_end_vacuum.exit

28:                                               ; preds = %19, %15
  %indvars.iv.next.i = add nuw nsw i64 %indvars.iv.i, 1
  %exitcond.not.i = icmp eq i64 %indvars.iv.next.i, %wide.trip.count.i
  br i1 %exitcond.not.i, label %_bt_end_vacuum.exit, label %15, !llvm.loop !21

_bt_end_vacuum.exit:                              ; preds = %28, %2, %24
  %29 = load ptr, ptr @MainLWLockArray, align 8
  %30 = getelementptr inbounds nuw i8, ptr %29, i64 2560
  tail call void @LWLockRelease(ptr noundef nonnull %30) #14
  ret void
}